target datalayout = "e-m:e-p270:32:32-p271:32:32-p272:64:64-i64:64-i128:128-f80:128-n8:16:32:64-S128"
target triple = "x86_64-pc-linux-gnu"

%struct.expert_field = type { i32, i32 }
%struct._pres_ctx_oid_t = type { i32, ptr, i32 }
%struct.conversation = type { ptr, ptr, ptr, i32, i32, i32, ptr, ptr, i32, ptr }
%struct._pres_user_t = type { i32, ptr }
%struct._asn1_ctx_t = type { i32, i32, i8, ptr, ptr, ptr, ptr, ptr, %struct.anon.2, %struct.anon.5, %struct.anon.6, ptr }
%struct.anon.2 = type { i32, i8, i8, i8, ptr, ptr, i32, i32, ptr, ptr, ptr, %union.anon }
%union.anon = type { %struct.anon.3 }
%struct.anon.3 = type { ptr }
%struct.anon.5 = type { ptr, ptr, ptr }
%struct.anon.6 = type { i32, i8, ptr, i32, i32, ptr, ptr, ptr, %union.anon.7 }
%union.anon.7 = type { %struct.anon.8 }
%struct.anon.8 = type { ptr }

@pres_ctx_oid_table = internal global ptr null, align 8
@ei_pres_dissector_not_available = internal global %struct.expert_field zeroinitializer, align 4
@pres_users = internal global ptr null, align 8
@num_pres_users = internal global i32 0, align 4
@global_tree = hidden global ptr null, align 8
@presentation_context_identifier = internal global i32 0, align 4

; Function Attrs: null_pointer_is_valid sspstrong uwtable
define internal ptr @find_oid_in_users_table(ptr noundef %0, i32 noundef %1) #0 {
  %3 = alloca ptr, align 8
  %4 = alloca ptr, align 8
  %5 = alloca i32, align 4
  %6 = alloca i32, align 4
  %7 = alloca ptr, align 8
  %8 = alloca i32, align 4
  store ptr %0, ptr %4, align 8
  store i32 %1, ptr %5, align 4
  call void @llvm.lifetime.start.p0(i64 4, ptr %6) #6
  store i32 0, ptr %6, align 4
  br label %9

9:                                                ; preds = %38, %2
  %10 = load i32, ptr %6, align 4
  %11 = load i32, ptr @num_pres_users, align 4
  %12 = icmp ult i32 %10, %11
  br i1 %12, label %13, label %41

13:                                               ; preds = %9
  call void @llvm.lifetime.start.p0(i64 8, ptr %7) #6
  %14 = load ptr, ptr @pres_users, align 8
  %15 = load i32, ptr %6, align 4
  %16 = zext i32 %15 to i64
  %17 = getelementptr %struct._pres_user_t, ptr %14, i64 %16
  store ptr %17, ptr %7, align 8
  %18 = load ptr, ptr %7, align 8
  %19 = getelementptr inbounds nuw %struct._pres_user_t, ptr %18, i32 0, i32 0
  %20 = load i32, ptr %19, align 8
  %21 = load i32, ptr %5, align 4
  %22 = icmp eq i32 %20, %21
  br i1 %22, label %23, label %34

23:                                               ; preds = %13
  %24 = load ptr, ptr %4, align 8
  %25 = load ptr, ptr %7, align 8
  %26 = getelementptr inbounds nuw %struct._pres_user_t, ptr %25, i32 0, i32 0
  %27 = load i32, ptr %26, align 8
  %28 = load ptr, ptr %7, align 8
  %29 = getelementptr inbounds nuw %struct._pres_user_t, ptr %28, i32 0, i32 1
  %30 = load ptr, ptr %29, align 8
  call void @register_ctx_id_and_oid(ptr noundef %24, i32 noundef %27, ptr noundef %30)
  %31 = load ptr, ptr %7, align 8
  %32 = getelementptr inbounds nuw %struct._pres_user_t, ptr %31, i32 0, i32 1
  %33 = load ptr, ptr %32, align 8
  store ptr %33, ptr %3, align 8
  store i32 1, ptr %8, align 4
  br label %35

34:                                               ; preds = %13
  store i32 0, ptr %8, align 4
  br label %35

35:                                               ; preds = %34, %23
  call void @llvm.lifetime.end.p0(i64 8, ptr %7) #6
  %36 = load i32, ptr %8, align 4
  switch i32 %36, label %42 [
    i32 0, label %37
  ]

37:                                               ; preds = %35
  br label %38

38:                                               ; preds = %37
  %39 = load i32, ptr %6, align 4
  %40 = add i32 %39, 1
  store i32 %40, ptr %6, align 4
  br label %9, !llvm.loop !6

41:                                               ; preds = %9
  store ptr null, ptr %3, align 8
  store i32 1, ptr %8, align 4
  br label %42

42:                                               ; preds = %41, %35
  call void @llvm.lifetime.end.p0(i64 4, ptr %6) #6
  %43 = load ptr, ptr %3, align 8
  ret ptr %43
}

; Function Attrs: null_pointer_is_valid sspstrong uwtable
define hidden ptr @find_oid_by_pres_ctx_id(ptr noundef %0, i32 noundef %1) #0 {
  %3 = alloca ptr, align 8
  %4 = alloca ptr, align 8
  %5 = alloca i32, align 4
  %6 = alloca %struct._pres_ctx_oid_t, align 8
  %7 = alloca ptr, align 8
  %8 = alloca ptr, align 8
  %9 = alloca i32, align 4
  store ptr %0, ptr %4, align 8
  store i32 %1, ptr %5, align 4
  call void @llvm.lifetime.start.p0(i64 24, ptr %6) #6
  call void @llvm.lifetime.start.p0(i64 8, ptr %7) #6
  call void @llvm.lifetime.start.p0(i64 8, ptr %8) #6
  %10 = load i32, ptr %5, align 4
  %11 = getelementptr inbounds nuw %struct._pres_ctx_oid_t, ptr %6, i32 0, i32 0
  store i32 %10, ptr %11, align 8
  %12 = load ptr, ptr %4, align 8
  %13 = call ptr @find_conversation_pinfo(ptr noundef %12, i32 noundef 0)
  store ptr %13, ptr %8, align 8
  %14 = load ptr, ptr %8, align 8
  %15 = icmp ne ptr %14, null
  br i1 %15, label %16, label %21

16:                                               ; preds = %2
  %17 = load ptr, ptr %8, align 8
  %18 = getelementptr inbounds nuw %struct.conversation, ptr %17, i32 0, i32 3
  %19 = load i32, ptr %18, align 8
  %20 = getelementptr inbounds nuw %struct._pres_ctx_oid_t, ptr %6, i32 0, i32 2
  store i32 %19, ptr %20, align 8
  br label %23

21:                                               ; preds = %2
  %22 = getelementptr inbounds nuw %struct._pres_ctx_oid_t, ptr %6, i32 0, i32 2
  store i32 0, ptr %22, align 8
  br label %23

23:                                               ; preds = %21, %16
  %24 = load ptr, ptr @pres_ctx_oid_table, align 8
  %25 = call ptr @wmem_map_lookup(ptr noundef %24, ptr noundef %6)
  store ptr %25, ptr %7, align 8
  %26 = load ptr, ptr %7, align 8
  %27 = icmp ne ptr %26, null
  br i1 %27, label %28, label %32

28:                                               ; preds = %23
  %29 = load ptr, ptr %7, align 8
  %30 = getelementptr inbounds nuw %struct._pres_ctx_oid_t, ptr %29, i32 0, i32 1
  %31 = load ptr, ptr %30, align 8
  store ptr %31, ptr %3, align 8
  store i32 1, ptr %9, align 4
  br label %36

32:                                               ; preds = %23
  %33 = load ptr, ptr %4, align 8
  %34 = load i32, ptr %5, align 4
  %35 = call ptr @find_oid_in_users_table(ptr noundef %33, i32 noundef %34)
  store ptr %35, ptr %3, align 8
  store i32 1, ptr %9, align 4
  br label %36

36:                                               ; preds = %32, %28
  call void @llvm.lifetime.end.p0(i64 8, ptr %8) #6
  call void @llvm.lifetime.end.p0(i64 8, ptr %7) #6
  call void @llvm.lifetime.end.p0(i64 24, ptr %6) #6
  %37 = load ptr, ptr %3, align 8
  ret ptr %37
}

; Function Attrs: null_pointer_is_valid sspstrong uwtable
define internal i32 @dissect_pres_T_single_ASN1_type(i1 noundef zeroext %0, ptr noundef %1, i32 noundef %2, ptr noundef %3, ptr noundef %4, i32 noundef %5) #0 {
  %7 = alloca i8, align 1
  %8 = alloca ptr, align 8
  %9 = alloca i32, align 4
  %10 = alloca ptr, align 8
  %11 = alloca ptr, align 8
  %12 = alloca i32, align 4
  %13 = alloca ptr, align 8
  %14 = alloca ptr, align 8
  %15 = zext i1 %0 to i8
  store i8 %15, ptr %7, align 1
  store ptr %1, ptr %8, align 8
  store i32 %2, ptr %9, align 4
  store ptr %3, ptr %10, align 8
  store ptr %4, ptr %11, align 8
  store i32 %5, ptr %12, align 4
  call void @llvm.lifetime.start.p0(i64 8, ptr %13) #6
  call void @llvm.lifetime.start.p0(i64 8, ptr %14) #6
  %16 = load ptr, ptr %10, align 8
  %17 = getelementptr inbounds nuw %struct._asn1_ctx_t, ptr %16, i32 0, i32 3
  %18 = load ptr, ptr %17, align 8
  %19 = load i32, ptr @presentation_context_identifier, align 4
  %20 = call ptr @find_oid_by_pres_ctx_id(ptr noundef %18, i32 noundef %19)
  store ptr %20, ptr %14, align 8
  %21 = load ptr, ptr %14, align 8
  %22 = icmp ne ptr %21, null
  br i1 %22, label %23, label %38

23:                                               ; preds = %6
  %24 = load ptr, ptr %8, align 8
  %25 = load i32, ptr %9, align 4
  %26 = call ptr @tvb_new_subset_remaining(ptr noundef %24, i32 noundef %25)
  store ptr %26, ptr %13, align 8
  %27 = load ptr, ptr %14, align 8
  %28 = load ptr, ptr %13, align 8
  %29 = load i32, ptr %9, align 4
  %30 = load ptr, ptr %10, align 8
  %31 = getelementptr inbounds nuw %struct._asn1_ctx_t, ptr %30, i32 0, i32 3
  %32 = load ptr, ptr %31, align 8
  %33 = load ptr, ptr @global_tree, align 8
  %34 = load ptr, ptr %10, align 8
  %35 = getelementptr inbounds nuw %struct._asn1_ctx_t, ptr %34, i32 0, i32 7
  %36 = load ptr, ptr %35, align 8
  %37 = call i32 @call_ber_oid_callback(ptr noundef %27, ptr noundef %28, i32 noundef %29, ptr noundef %32, ptr noundef %33, ptr noundef %36)
  br label %46

38:                                               ; preds = %6
  %39 = load ptr, ptr %11, align 8
  %40 = load ptr, ptr %10, align 8
  %41 = getelementptr inbounds nuw %struct._asn1_ctx_t, ptr %40, i32 0, i32 3
  %42 = load ptr, ptr %41, align 8
  %43 = load ptr, ptr %8, align 8
  %44 = load i32, ptr %9, align 4
  %45 = call ptr @proto_tree_add_expert(ptr noundef %39, ptr noundef %42, ptr noundef @ei_pres_dissector_not_available, ptr noundef %43, i32 noundef %44, i32 noundef -1)
  br label %46

46:                                               ; preds = %38, %23
  %47 = load i32, ptr %9, align 4
  call void @llvm.lifetime.end.p0(i64 8, ptr %14) #6
  call void @llvm.lifetime.end.p0(i64 8, ptr %13) #6
  ret i32 %47
}