; Function Attrs: null_pointer_is_valid sspstrong uwtable
define internal noundef i32 @dissect_pres_T_single_ASN1_type(i1 zeroext %0, ptr noundef %1, i32 noundef returned %2, ptr noundef readonly captures(none) %3, ptr noundef %4, i32 %5) #0 {
  %7 = alloca %struct._pres_ctx_oid_t, align 8
  %8 = getelementptr inbounds nuw i8, ptr %3, i64 16
  %9 = load ptr, ptr %8, align 8
  %10 = load i32, ptr @presentation_context_identifier, align 4
  call void @llvm.lifetime.start.p0(i64 24, ptr nonnull %7) #7
  store i32 %10, ptr %7, align 8
  %11 = tail call ptr @find_conversation_pinfo(ptr noundef %9, i32 noundef 0)
  %.not.i = icmp eq ptr %11, null
  br i1 %.not.i, label %15, label %12

12:                                               ; preds = %6
  %13 = getelementptr inbounds nuw i8, ptr %11, i64 24
  %14 = load i32, ptr %13, align 8
  br label %15

15:                                               ; preds = %12, %6
  %.sink.i = phi i32 [ %14, %12 ], [ 0, %6 ]
  %16 = getelementptr inbounds nuw i8, ptr %7, i64 16
  store i32 %.sink.i, ptr %16, align 8
  %17 = load ptr, ptr @pres_ctx_oid_table, align 8
  %18 = call ptr @wmem_map_lookup(ptr noundef %17, ptr noundef nonnull %7)
  %.not10.i = icmp eq ptr %18, null
  br i1 %.not10.i, label %21, label %19

19:                                               ; preds = %15
  %20 = getelementptr inbounds nuw i8, ptr %18, i64 8
  br label %find_oid_by_pres_ctx_id.exit

21:                                               ; preds = %15
  %22 = load i32, ptr @num_pres_users, align 4
  %.not16.i.i = icmp eq i32 %22, 0
  br i1 %.not16.i.i, label %find_oid_by_pres_ctx_id.exit.thread, label %.lr.ph.i.i

.lr.ph.i.i:                                       ; preds = %21
  %23 = load ptr, ptr @pres_users, align 8
  %wide.trip.count.i.i = zext i32 %22 to i64
  br label %25

24:                                               ; preds = %25
  %indvars.iv.next.i.i = add nuw nsw i64 %indvars.iv.i.i, 1
  %exitcond.not.i.i = icmp eq i64 %indvars.iv.next.i.i, %wide.trip.count.i.i
  br i1 %exitcond.not.i.i, label %find_oid_by_pres_ctx_id.exit.thread, label %25, !llvm.loop !6

25:                                               ; preds = %24, %.lr.ph.i.i
  %indvars.iv.i.i = phi i64 [ 0, %.lr.ph.i.i ], [ %indvars.iv.next.i.i, %24 ]
  %26 = getelementptr %struct._pres_user_t, ptr %23, i64 %indvars.iv.i.i
  %27 = load i32, ptr %26, align 8
  %.not.i.i = icmp eq i32 %27, %10
  br i1 %.not.i.i, label %.thread.i.i, label %24

.thread.i.i:                                      ; preds = %25
  %28 = getelementptr inbounds nuw i8, ptr %26, i64 8
  %29 = load ptr, ptr %28, align 8
  call fastcc void @register_ctx_id_and_oid(ptr noundef %9, i32 noundef %10, ptr noundef %29)
  br label %find_oid_by_pres_ctx_id.exit

find_oid_by_pres_ctx_id.exit.thread:              ; preds = %24, %21
  call void @llvm.lifetime.end.p0(i64 24, ptr nonnull %7) #7
  br label %37

find_oid_by_pres_ctx_id.exit:                     ; preds = %19, %.thread.i.i
  %.0.i.in = phi ptr [ %20, %19 ], [ %28, %.thread.i.i ]
  %.0.i = load ptr, ptr %.0.i.in, align 8
  call void @llvm.lifetime.end.p0(i64 24, ptr nonnull %7) #7
  %.not = icmp eq ptr %.0.i, null
  br i1 %.not, label %37, label %30

30:                                               ; preds = %find_oid_by_pres_ctx_id.exit
  %31 = call ptr @tvb_new_subset_remaining(ptr noundef %1, i32 noundef %2)
  %32 = load ptr, ptr %8, align 8
  %33 = load ptr, ptr @global_tree, align 8
  %34 = getelementptr inbounds nuw i8, ptr %3, i64 48
  %35 = load ptr, ptr %34, align 8
  %36 = call i32 @call_ber_oid_callback(ptr noundef nonnull %.0.i, ptr noundef %31, i32 noundef %2, ptr noundef %32, ptr noundef %33, ptr noundef %35)
  br label %40

37:                                               ; preds = %find_oid_by_pres_ctx_id.exit.thread, %find_oid_by_pres_ctx_id.exit
  %38 = load ptr, ptr %8, align 8
  %39 = call ptr @proto_tree_add_expert(ptr noundef %4, ptr noundef %38, ptr noundef nonnull @ei_pres_dissector_not_available, ptr noundef %1, i32 noundef %2, i32 noundef -1)
  br label %40

40:                                               ; preds = %37, %30
  ret i32 %2
}